target datalayout = "e-m:e-p270:32:32-p271:32:32-p272:64:64-i64:64-i128:128-f80:128-n8:16:32:64-S128"
target triple = "x86_64-pc-linux-gnu"

@.str.22 = private unnamed_addr constant [2 x i8] c"\0A\00", align 1
@.str.88 = private unnamed_addr constant [32 x i8] c"    dump [options] [selection]\0A\00", align 1
@.str.89 = private unnamed_addr constant [76 x i8] c"Write the selected parts of the design to the console or specified file in\0A\00", align 1
@.str.90 = private unnamed_addr constant [15 x i8] c"RTLIL format.\0A\00", align 1
@.str.91 = private unnamed_addr constant [8 x i8] c"    -m\0A\00", align 1
@.str.92 = private unnamed_addr constant [70 x i8] c"        also dump the module headers, even if only parts of a single\0A\00", align 1
@.str.93 = private unnamed_addr constant [28 x i8] c"        module is selected\0A\00", align 1
@.str.94 = private unnamed_addr constant [8 x i8] c"    -n\0A\00", align 1
@.str.95 = private unnamed_addr constant [71 x i8] c"        only dump the module headers if the entire module is selected\0A\00", align 1
@.str.96 = private unnamed_addr constant [19 x i8] c"    -o <filename>\0A\00", align 1
@.str.97 = private unnamed_addr constant [38 x i8] c"        write to the specified file.\0A\00", align 1
@.str.98 = private unnamed_addr constant [19 x i8] c"    -a <filename>\0A\00", align 1
@.str.99 = private unnamed_addr constant [55 x i8] c"        like -outfile but append instead of overwrite\0A\00", align 1

; Function Attrs: mustprogress uwtable
define internal void @_ZN12_GLOBAL__N_18DumpPass4helpEv(ptr noundef nonnull align 8 dereferenceable(104) %0) unnamed_addr #4 align 2 {
  %2 = alloca ptr, align 8
  store ptr %0, ptr %2, align 8, !tbaa !295
  call void (ptr, ...) @_ZN5Yosys3logEPKcz(ptr noundef @.str.22)
  call void (ptr, ...) @_ZN5Yosys3logEPKcz(ptr noundef @.str.88)
  call void (ptr, ...) @_ZN5Yosys3logEPKcz(ptr noundef @.str.22)
  call void (ptr, ...) @_ZN5Yosys3logEPKcz(ptr noundef @.str.89)
  call void (ptr, ...) @_ZN5Yosys3logEPKcz(ptr noundef @.str.90)
  call void (ptr, ...) @_ZN5Yosys3logEPKcz(ptr noundef @.str.22)
  call void (ptr, ...) @_ZN5Yosys3logEPKcz(ptr noundef @.str.91)
  call void (ptr, ...) @_ZN5Yosys3logEPKcz(ptr noundef @.str.92)
  call void (ptr, ...) @_ZN5Yosys3logEPKcz(ptr noundef @.str.93)
  call void (ptr, ...) @_ZN5Yosys3logEPKcz(ptr noundef @.str.22)
  call void (ptr, ...) @_ZN5Yosys3logEPKcz(ptr noundef @.str.94)
  call void (ptr, ...) @_ZN5Yosys3logEPKcz(ptr noundef @.str.95)
  call void (ptr, ...) @_ZN5Yosys3logEPKcz(ptr noundef @.str.22)
  call void (ptr, ...) @_ZN5Yosys3logEPKcz(ptr noundef @.str.96)
  call void (ptr, ...) @_ZN5Yosys3logEPKcz(ptr noundef @.str.97)
  call void (ptr, ...) @_ZN5Yosys3logEPKcz(ptr noundef @.str.22)
  call void (ptr, ...) @_ZN5Yosys3logEPKcz(ptr noundef @.str.98)
  call void (ptr, ...) @_ZN5Yosys3logEPKcz(ptr noundef @.str.99)
  call void (ptr, ...) @_ZN5Yosys3logEPKcz(ptr noundef @.str.22)
  ret void
}